target datalayout = "e-m:e-p270:32:32-p271:32:32-p272:64:64-i64:64-i128:128-f80:128-n8:16:32:64-S128"
target triple = "x86_64-unknown-linux-gnu"

%"class.facebook::velox::cache::AsyncDataCacheEntry" = type <{ %"struct.facebook::velox::cache::FileCacheKey", ptr, %"class.facebook::velox::memory::Allocation", %"class.std::__cxx11::basic_string", %"class.std::unique_ptr", i32, %"struct.std::atomic", %"struct.facebook::velox::cache::AccessStats", i8, %"struct.std::atomic.5", [6 x i8], i64, %"class.facebook::velox::cache::TrackingId", [4 x i8], ptr, i64, %"struct.std::atomic.5", [7 x i8] }>
%"struct.facebook::velox::cache::FileCacheKey" = type { %"class.facebook::velox::StringIdLease", i64 }
%"class.facebook::velox::StringIdLease" = type { ptr, i64 }
%"class.facebook::velox::memory::Allocation" = type <{ ptr, %"class.std::vector", i32, [4 x i8] }>
%"class.std::vector" = type { %"struct.std::_Vector_base" }
%"struct.std::_Vector_base" = type { %"struct.std::_Vector_base<facebook::velox::memory::Allocation::PageRun, std::allocator<facebook::velox::memory::Allocation::PageRun>>::_Vector_impl" }
%"struct.std::_Vector_base<facebook::velox::memory::Allocation::PageRun, std::allocator<facebook::velox::memory::Allocation::PageRun>>::_Vector_impl" = type { %"struct.std::_Vector_base<facebook::velox::memory::Allocation::PageRun, std::allocator<facebook::velox::memory::Allocation::PageRun>>::_Vector_impl_data" }
%"struct.std::_Vector_base<facebook::velox::memory::Allocation::PageRun, std::allocator<facebook::velox::memory::Allocation::PageRun>>::_Vector_impl_data" = type { ptr, ptr, ptr }
%"class.std::__cxx11::basic_string" = type { %"struct.std::__cxx11::basic_string<char>::_Alloc_hider", i64, %union.anon }
%"struct.std::__cxx11::basic_string<char>::_Alloc_hider" = type { ptr }
%union.anon = type { i64, [8 x i8] }
%"class.std::unique_ptr" = type { %"struct.std::__uniq_ptr_data" }
%"struct.std::__uniq_ptr_data" = type { %"class.std::__uniq_ptr_impl" }
%"class.std::__uniq_ptr_impl" = type { %"class.std::tuple" }
%"class.std::tuple" = type { %"struct.std::_Tuple_impl" }
%"struct.std::_Tuple_impl" = type { %"struct.std::_Head_base.4" }
%"struct.std::_Head_base.4" = type { ptr }
%"struct.std::atomic" = type { %"struct.std::__atomic_base" }
%"struct.std::__atomic_base" = type { i32 }
%"struct.facebook::velox::cache::AccessStats" = type { i32, i32 }
%"class.facebook::velox::cache::TrackingId" = type { i32 }
%"struct.std::atomic.5" = type { %"struct.std::__atomic_base.6" }
%"struct.std::__atomic_base.6" = type { i8 }
%"class.fmt::v8::basic_string_view" = type { ptr, i64 }
%"class.fmt::v8::basic_format_string" = type { %"class.fmt::v8::basic_string_view" }
%"class.fmt::v8::basic_format_args" = type { i64, %union.anon.235 }
%union.anon.235 = type { ptr }
%"class.fmt::v8::format_arg_store" = type { %"struct.fmt::v8::detail::arg_data" }
%"struct.fmt::v8::detail::arg_data" = type { [4 x %"class.fmt::v8::detail::value"] }
%"class.fmt::v8::detail::value" = type { %union.anon.236 }
%union.anon.236 = type { i128 }
%"struct.fmt::v8::detail::arg_mapper" = type { i8 }

@.str = private unnamed_addr constant [34 x i8] c"<entry key:{}:{} size {} pins {}>\00", align 1

; Function Attrs: mustprogress nounwind uwtable
define linkonce_odr noundef i32 @_ZStanSt12memory_orderSt23__memory_order_modifier(i32 noundef %__m, i32 noundef %__mod) #1 comdat {
entry:
  %__m.addr = alloca i32, align 4
  %__mod.addr = alloca i32, align 4
  store i32 %__m, ptr %__m.addr, align 4
  store i32 %__mod, ptr %__mod.addr, align 4
  %0 = load i32, ptr %__m.addr, align 4
  %1 = load i32, ptr %__mod.addr, align 4
  %and = and i32 %0, %1
  ret i32 %and
}

; Function Attrs: mustprogress nounwind uwtable
define linkonce_odr noundef i32 @_ZNKSt13__atomic_baseIiEcviEv(ptr noundef nonnull align 4 dereferenceable(4) %this) #1 comdat align 2 {
entry:
  %this.addr.i = alloca ptr, align 8
  %__m.addr.i = alloca i32, align 4
  %__b.i = alloca i32, align 4
  %atomic-temp.i = alloca i32, align 4
  %this.addr = alloca ptr, align 8
  store ptr %this, ptr %this.addr, align 8
  %this1 = load ptr, ptr %this.addr, align 8
  store ptr %this1, ptr %this.addr.i, align 8
  store i32 5, ptr %__m.addr.i, align 4
  %this1.i = load ptr, ptr %this.addr.i, align 8
  %0 = load i32, ptr %__m.addr.i, align 4
  %call.i = call noundef i32 @_ZStanSt12memory_orderSt23__memory_order_modifier(i32 noundef %0, i32 noundef 65535)
  store i32 %call.i, ptr %__b.i, align 4
  %1 = load i32, ptr %__m.addr.i, align 4
  switch i32 %1, label %monotonic.i [
    i32 1, label %acquire.i
    i32 2, label %acquire.i
    i32 5, label %seqcst.i
  ]

monotonic.i:                                      ; preds = %entry
  %2 = load atomic i32, ptr %this1.i monotonic, align 4
  store i32 %2, ptr %atomic-temp.i, align 4
  br label %_ZNKSt13__atomic_baseIiE4loadESt12memory_order.exit

acquire.i:                                        ; preds = %entry, %entry
  %3 = load atomic i32, ptr %this1.i acquire, align 4
  store i32 %3, ptr %atomic-temp.i, align 4
  br label %_ZNKSt13__atomic_baseIiE4loadESt12memory_order.exit

seqcst.i:                                         ; preds = %entry
  %4 = load atomic i32, ptr %this1.i seq_cst, align 4
  store i32 %4, ptr %atomic-temp.i, align 4
  br label %_ZNKSt13__atomic_baseIiE4loadESt12memory_order.exit

_ZNKSt13__atomic_baseIiE4loadESt12memory_order.exit: ; preds = %seqcst.i, %acquire.i, %monotonic.i
  %5 = load i32, ptr %atomic-temp.i, align 4
  ret i32 %5
}

; Function Attrs: mustprogress uwtable
define linkonce_odr void @_ZN3fmt2v816make_format_argsINS0_20basic_format_contextINS0_8appenderEcEEJRmRKmRKiRKSt6atomicIiEEEENS0_16format_arg_storeIT_JDpNSt9remove_cvINSt16remove_referenceIT0_E4typeEE4typeEEEEDpOSI_(ptr noalias sret(%"class.fmt::v8::format_arg_store") align 16 %agg.result, ptr noundef nonnull align 8 dereferenceable(8) %args, ptr noundef nonnull align 8 dereferenceable(8) %args1, ptr noundef nonnull align 4 dereferenceable(4) %args3, ptr noundef nonnull align 4 dereferenceable(4) %args5) #0 comdat {
entry:
  %this.addr.i62 = alloca ptr, align 8
  %val.addr.i63 = alloca i32, align 4
  %this.addr.i59 = alloca ptr, align 8
  %val.addr.i60 = alloca i32, align 4
  %this.addr.i56 = alloca ptr, align 8
  %val.addr.i57 = alloca i32, align 4
  %this.addr.i53 = alloca ptr, align 8
  %val.addr.i54 = alloca i32, align 4
  %this.addr.i50 = alloca ptr, align 8
  %val.addr.i51 = alloca i64, align 8
  %this.addr.i47 = alloca ptr, align 8
  %val.addr.i48 = alloca i64, align 8
  %this.addr.i44 = alloca ptr, align 8
  %val.addr.i45 = alloca i64, align 8
  %this.addr.i41 = alloca ptr, align 8
  %val.addr.i42 = alloca i64, align 8
  %this.addr.i40 = alloca ptr, align 8
  %.addr.i = alloca ptr, align 8
  %.addr1.i = alloca i32, align 4
  %.addr2.i = alloca i32, align 4
  %.addr3.i = alloca ptr, align 8
  %.addr4.i = alloca ptr, align 8
  %.addr5.i = alloca ptr, align 8
  %.addr6.i = alloca ptr, align 8
  %this.addr.i38 = alloca ptr, align 8
  %init.addr.i = alloca ptr, align 8
  %init.addr2.i = alloca ptr, align 8
  %init.addr4.i = alloca ptr, align 8
  %init.addr6.i = alloca ptr, align 8
  %retval.i28 = alloca %"class.fmt::v8::detail::value", align 16
  %val.addr.i29 = alloca ptr, align 8
  %arg.i30 = alloca ptr, align 8
  %ref.tmp.i31 = alloca i32, align 4
  %ref.tmp1.i32 = alloca %"struct.fmt::v8::detail::arg_mapper", align 1
  %formattable_char.i33 = alloca i8, align 1
  %formattable_const.i34 = alloca i8, align 1
  %formattable_pointer.i35 = alloca i8, align 1
  %formattable.i36 = alloca i8, align 1
  %retval.i18 = alloca %"class.fmt::v8::detail::value", align 16
  %val.addr.i19 = alloca ptr, align 8
  %arg.i20 = alloca ptr, align 8
  %ref.tmp.i21 = alloca i32, align 4
  %ref.tmp1.i22 = alloca %"struct.fmt::v8::detail::arg_mapper", align 1
  %formattable_char.i23 = alloca i8, align 1
  %formattable_const.i24 = alloca i8, align 1
  %formattable_pointer.i25 = alloca i8, align 1
  %formattable.i26 = alloca i8, align 1
  %retval.i9 = alloca %"class.fmt::v8::detail::value", align 16
  %val.addr.i10 = alloca ptr, align 8
  %arg.i11 = alloca ptr, align 8
  %ref.tmp.i12 = alloca i64, align 8
  %ref.tmp1.i13 = alloca %"struct.fmt::v8::detail::arg_mapper", align 1
  %formattable_char.i14 = alloca i8, align 1
  %formattable_const.i15 = alloca i8, align 1
  %formattable_pointer.i16 = alloca i8, align 1
  %formattable.i17 = alloca i8, align 1
  %retval.i = alloca %"class.fmt::v8::detail::value", align 16
  %val.addr.i = alloca ptr, align 8
  %arg.i = alloca ptr, align 8
  %ref.tmp.i7 = alloca i64, align 8
  %ref.tmp1.i = alloca %"struct.fmt::v8::detail::arg_mapper", align 1
  %formattable_char.i = alloca i8, align 1
  %formattable_const.i = alloca i8, align 1
  %formattable_pointer.i = alloca i8, align 1
  %formattable.i = alloca i8, align 1
  %this.addr.i = alloca ptr, align 8
  %args.addr.i = alloca ptr, align 8
  %args.addr2.i = alloca ptr, align 8
  %args.addr4.i = alloca ptr, align 8
  %args.addr6.i = alloca ptr, align 8
  %ref.tmp.i = alloca %"class.fmt::v8::detail::value", align 16
  %ref.tmp9.i = alloca %"class.fmt::v8::detail::value", align 16
  %ref.tmp13.i = alloca %"class.fmt::v8::detail::value", align 16
  %ref.tmp17.i = alloca %"class.fmt::v8::detail::value", align 16
  %args.addr = alloca ptr, align 8
  %args.addr2 = alloca ptr, align 8
  %args.addr4 = alloca ptr, align 8
  %args.addr6 = alloca ptr, align 8
  store ptr %args, ptr %args.addr, align 8
  store ptr %args1, ptr %args.addr2, align 8
  store ptr %args3, ptr %args.addr4, align 8
  store ptr %args5, ptr %args.addr6, align 8
  %0 = load ptr, ptr %args.addr, align 8
  %1 = load ptr, ptr %args.addr2, align 8
  %2 = load ptr, ptr %args.addr4, align 8
  %3 = load ptr, ptr %args.addr6, align 8
  store ptr %agg.result, ptr %this.addr.i, align 8
  store ptr %0, ptr %args.addr.i, align 8
  store ptr %1, ptr %args.addr2.i, align 8
  store ptr %2, ptr %args.addr4.i, align 8
  store ptr %3, ptr %args.addr6.i, align 8
  %this7.i = load ptr, ptr %this.addr.i, align 8
  %4 = load ptr, ptr %args.addr.i, align 8
  store ptr %4, ptr %val.addr.i, align 8
  %5 = load ptr, ptr %val.addr.i, align 8
  %6 = load i64, ptr %5, align 8
  store ptr %ref.tmp1.i, ptr %this.addr.i44, align 8
  store i64 %6, ptr %val.addr.i45, align 8
  %7 = load i64, ptr %val.addr.i45, align 8
  store i64 %7, ptr %ref.tmp.i7, align 8
  store ptr %ref.tmp.i7, ptr %arg.i, align 8
  store i8 1, ptr %formattable_char.i, align 1
  store i8 1, ptr %formattable_const.i, align 1
  store i8 1, ptr %formattable_pointer.i, align 1
  store i8 1, ptr %formattable.i, align 1
  %8 = load ptr, ptr %arg.i, align 8
  %9 = load i64, ptr %8, align 8
  store ptr %retval.i, ptr %this.addr.i50, align 8
  store i64 %9, ptr %val.addr.i51, align 8
  %this1.i52 = load ptr, ptr %this.addr.i50, align 8
  %10 = load i64, ptr %val.addr.i51, align 8
  store i64 %10, ptr %this1.i52, align 16
  %11 = load { i64, i64 }, ptr %retval.i, align 16
  %12 = extractvalue { i64, i64 } %11, 0
  store i64 %12, ptr %ref.tmp.i, align 16
  %13 = getelementptr inbounds { i64, i64 }, ptr %ref.tmp.i, i32 0, i32 1
  %14 = extractvalue { i64, i64 } %11, 1
  store i64 %14, ptr %13, align 8
  %15 = load ptr, ptr %args.addr2.i, align 8
  store ptr %15, ptr %val.addr.i10, align 8
  %16 = load ptr, ptr %val.addr.i10, align 8
  %17 = load i64, ptr %16, align 8
  store ptr %ref.tmp1.i13, ptr %this.addr.i41, align 8
  store i64 %17, ptr %val.addr.i42, align 8
  %18 = load i64, ptr %val.addr.i42, align 8
  store i64 %18, ptr %ref.tmp.i12, align 8
  store ptr %ref.tmp.i12, ptr %arg.i11, align 8
  store i8 1, ptr %formattable_char.i14, align 1
  store i8 1, ptr %formattable_const.i15, align 1
  store i8 1, ptr %formattable_pointer.i16, align 1
  store i8 1, ptr %formattable.i17, align 1
  %19 = load ptr, ptr %arg.i11, align 8
  %20 = load i64, ptr %19, align 8
  store ptr %retval.i9, ptr %this.addr.i47, align 8
  store i64 %20, ptr %val.addr.i48, align 8
  %this1.i49 = load ptr, ptr %this.addr.i47, align 8
  %21 = load i64, ptr %val.addr.i48, align 8
  store i64 %21, ptr %this1.i49, align 16
  %22 = load { i64, i64 }, ptr %retval.i9, align 16
  %23 = extractvalue { i64, i64 } %22, 0
  store i64 %23, ptr %ref.tmp9.i, align 16
  %24 = getelementptr inbounds { i64, i64 }, ptr %ref.tmp9.i, i32 0, i32 1
  %25 = extractvalue { i64, i64 } %22, 1
  store i64 %25, ptr %24, align 8
  %26 = load ptr, ptr %args.addr4.i, align 8
  store ptr %26, ptr %val.addr.i19, align 8
  %27 = load ptr, ptr %val.addr.i19, align 8
  %28 = load i32, ptr %27, align 4
  store ptr %ref.tmp1.i22, ptr %this.addr.i56, align 8
  store i32 %28, ptr %val.addr.i57, align 4
  %29 = load i32, ptr %val.addr.i57, align 4
  store i32 %29, ptr %ref.tmp.i21, align 4
  store ptr %ref.tmp.i21, ptr %arg.i20, align 8
  store i8 1, ptr %formattable_char.i23, align 1
  store i8 1, ptr %formattable_const.i24, align 1
  store i8 1, ptr %formattable_pointer.i25, align 1
  store i8 1, ptr %formattable.i26, align 1
  %30 = load ptr, ptr %arg.i20, align 8
  %31 = load i32, ptr %30, align 4
  store ptr %retval.i18, ptr %this.addr.i62, align 8
  store i32 %31, ptr %val.addr.i63, align 4
  %this1.i64 = load ptr, ptr %this.addr.i62, align 8
  %32 = load i32, ptr %val.addr.i63, align 4
  store i32 %32, ptr %this1.i64, align 16
  %33 = load { i64, i64 }, ptr %retval.i18, align 16
  %34 = extractvalue { i64, i64 } %33, 0
  store i64 %34, ptr %ref.tmp13.i, align 16
  %35 = getelementptr inbounds { i64, i64 }, ptr %ref.tmp13.i, i32 0, i32 1
  %36 = extractvalue { i64, i64 } %33, 1
  store i64 %36, ptr %35, align 8
  %37 = load ptr, ptr %args.addr6.i, align 8
  store ptr %37, ptr %val.addr.i29, align 8
  %38 = load ptr, ptr %val.addr.i29, align 8
  %call.i37 = call noundef i32 @_ZNKSt13__atomic_baseIiEcviEv(ptr noundef nonnull align 4 dereferenceable(4) %38) #12
  store ptr %ref.tmp1.i32, ptr %this.addr.i53, align 8
  store i32 %call.i37, ptr %val.addr.i54, align 4
  %39 = load i32, ptr %val.addr.i54, align 4
  store i32 %39, ptr %ref.tmp.i31, align 4
  store ptr %ref.tmp.i31, ptr %arg.i30, align 8
  store i8 1, ptr %formattable_char.i33, align 1
  store i8 1, ptr %formattable_const.i34, align 1
  store i8 1, ptr %formattable_pointer.i35, align 1
  store i8 1, ptr %formattable.i36, align 1
  %40 = load ptr, ptr %arg.i30, align 8
  %41 = load i32, ptr %40, align 4
  store ptr %retval.i28, ptr %this.addr.i59, align 8
  store i32 %41, ptr %val.addr.i60, align 4
  %this1.i61 = load ptr, ptr %this.addr.i59, align 8
  %42 = load i32, ptr %val.addr.i60, align 4
  store i32 %42, ptr %this1.i61, align 16
  %43 = load { i64, i64 }, ptr %retval.i28, align 16
  %44 = extractvalue { i64, i64 } %43, 0
  store i64 %44, ptr %ref.tmp17.i, align 16
  %45 = getelementptr inbounds { i64, i64 }, ptr %ref.tmp17.i, i32 0, i32 1
  %46 = extractvalue { i64, i64 } %43, 1
  store i64 %46, ptr %45, align 8
  store ptr %this7.i, ptr %this.addr.i38, align 8
  store ptr %ref.tmp.i, ptr %init.addr.i, align 8
  store ptr %ref.tmp9.i, ptr %init.addr2.i, align 8
  store ptr %ref.tmp13.i, ptr %init.addr4.i, align 8
  store ptr %ref.tmp17.i, ptr %init.addr6.i, align 8
  %this7.i39 = load ptr, ptr %this.addr.i38, align 8
  %47 = load ptr, ptr %init.addr.i, align 8
  call void @llvm.memcpy.p0.p0.i64(ptr align 16 %this7.i39, ptr align 16 %47, i64 16, i1 false)
  %arrayinit.element.i = getelementptr inbounds %"class.fmt::v8::detail::value", ptr %this7.i39, i64 1
  %48 = load ptr, ptr %init.addr2.i, align 8
  call void @llvm.memcpy.p0.p0.i64(ptr align 16 %arrayinit.element.i, ptr align 16 %48, i64 16, i1 false)
  %arrayinit.element8.i = getelementptr inbounds %"class.fmt::v8::detail::value", ptr %arrayinit.element.i, i64 1
  %49 = load ptr, ptr %init.addr4.i, align 8
  call void @llvm.memcpy.p0.p0.i64(ptr align 16 %arrayinit.element8.i, ptr align 16 %49, i64 16, i1 false)
  %arrayinit.element9.i = getelementptr inbounds %"class.fmt::v8::detail::value", ptr %arrayinit.element8.i, i64 1
  %50 = load ptr, ptr %init.addr6.i, align 8
  call void @llvm.memcpy.p0.p0.i64(ptr align 16 %arrayinit.element9.i, ptr align 16 %50, i64 16, i1 false)
  store ptr %this7.i, ptr %this.addr.i40, align 8
  %51 = load ptr, ptr %args.addr.i, align 8
  %52 = load ptr, ptr %args.addr2.i, align 8
  %53 = load ptr, ptr %args.addr4.i, align 8
  %54 = load ptr, ptr %args.addr6.i, align 8
  store ptr null, ptr %.addr.i, align 8
  store i32 0, ptr %.addr1.i, align 4
  store i32 0, ptr %.addr2.i, align 4
  store ptr %51, ptr %.addr3.i, align 8
  store ptr %52, ptr %.addr4.i, align 8
  store ptr %53, ptr %.addr5.i, align 8
  store ptr %54, ptr %.addr6.i, align 8
  ret void
}

; Function Attrs: mustprogress nounwind uwtable
define linkonce_odr noundef i64 @_ZNK8facebook5velox13StringIdLease2idEv(ptr noundef nonnull align 8 dereferenceable(16) %this) #1 comdat align 2 {
entry:
  %this.addr = alloca ptr, align 8
  store ptr %this, ptr %this.addr, align 8
  %this1 = load ptr, ptr %this.addr, align 8
  %id_ = getelementptr inbounds %"class.facebook::velox::StringIdLease", ptr %this1, i32 0, i32 1
  %0 = load i64, ptr %id_, align 8
  ret i64 %0
}

; Function Attrs: mustprogress nounwind uwtable
define linkonce_odr noundef i64 @_ZNSt11char_traitsIcE6lengthEPKc(ptr noundef %__s) #1 comdat align 2 {
entry:
  %__s.addr = alloca ptr, align 8
  store ptr %__s, ptr %__s.addr, align 8
  %0 = load ptr, ptr %__s.addr, align 8
  %call = call i64 @strlen(ptr noundef %0) #12
  ret i64 %call
}

; Function Attrs: mustprogress uwtable
define void @_ZNK8facebook5velox5cache19AsyncDataCacheEntry8toStringB5cxx11Ev(ptr noalias sret(%"class.std::__cxx11::basic_string") align 8 %agg.result, ptr noundef nonnull align 8 dereferenceable(169) %this) #0 align 2 {
entry:
  %.addr.i = alloca ptr, align 8
  %this.addr.i11 = alloca ptr, align 8
  %s.addr.i12 = alloca ptr, align 8
  %this.addr.i9 = alloca ptr, align 8
  %desc.addr.i = alloca i64, align 8
  %values.addr.i = alloca ptr, align 8
  %this.addr.i7 = alloca ptr, align 8
  %this.addr.i5 = alloca ptr, align 8
  %store.addr.i = alloca ptr, align 8
  %retval.i = alloca %"class.fmt::v8::basic_string_view", align 8
  %this.addr.i3 = alloca ptr, align 8
  %this.addr.i = alloca ptr, align 8
  %s.addr.i = alloca ptr, align 8
  %result.ptr.i = alloca ptr, align 8
  %fmt.i = alloca %"class.fmt::v8::basic_format_string", align 8
  %args.addr.i = alloca ptr, align 8
  %args.addr2.i = alloca ptr, align 8
  %args.addr4.i = alloca ptr, align 8
  %args.addr6.i = alloca ptr, align 8
  %agg.tmp.i = alloca %"class.fmt::v8::basic_string_view", align 8
  %agg.tmp7.i = alloca %"class.fmt::v8::basic_format_args", align 8
  %ref.tmp.i = alloca %"class.fmt::v8::format_arg_store", align 16
  %result.ptr = alloca ptr, align 8
  %this.addr = alloca ptr, align 8
  %agg.tmp = alloca %"class.fmt::v8::basic_format_string", align 8
  %ref.tmp = alloca i64, align 8
  store ptr %agg.result, ptr %result.ptr, align 8
  store ptr %this, ptr %this.addr, align 8
  %this1 = load ptr, ptr %this.addr, align 8
  store ptr %agg.tmp, ptr %this.addr.i, align 8
  store ptr @.str, ptr %s.addr.i, align 8
  %this1.i = load ptr, ptr %this.addr.i, align 8
  %0 = load ptr, ptr %s.addr.i, align 8
  store ptr %this1.i, ptr %this.addr.i11, align 8
  store ptr %0, ptr %s.addr.i12, align 8
  %this1.i13 = load ptr, ptr %this.addr.i11, align 8
  %1 = load ptr, ptr %s.addr.i12, align 8
  store ptr %1, ptr %this1.i13, align 8
  %size_.i = getelementptr inbounds %"class.fmt::v8::basic_string_view", ptr %this1.i13, i32 0, i32 1
  %2 = load ptr, ptr %s.addr.i12, align 8
  %call.i = call noundef i64 @_ZNSt11char_traitsIcE6lengthEPKc(ptr noundef %2)
  store i64 %call.i, ptr %size_.i, align 8
  %3 = load ptr, ptr %s.addr.i, align 8
  store ptr %3, ptr %.addr.i, align 8
  %key_ = getelementptr inbounds %"class.facebook::velox::cache::AsyncDataCacheEntry", ptr %this1, i32 0, i32 0
  %fileNum = getelementptr inbounds %"struct.facebook::velox::cache::FileCacheKey", ptr %key_, i32 0, i32 0
  %call = call noundef i64 @_ZNK8facebook5velox13StringIdLease2idEv(ptr noundef nonnull align 8 dereferenceable(16) %fileNum)
  store i64 %call, ptr %ref.tmp, align 8
  %key_2 = getelementptr inbounds %"class.facebook::velox::cache::AsyncDataCacheEntry", ptr %this1, i32 0, i32 0
  %offset = getelementptr inbounds %"struct.facebook::velox::cache::FileCacheKey", ptr %key_2, i32 0, i32 1
  %size_ = getelementptr inbounds %"class.facebook::velox::cache::AsyncDataCacheEntry", ptr %this1, i32 0, i32 5
  %numPins_ = getelementptr inbounds %"class.facebook::velox::cache::AsyncDataCacheEntry", ptr %this1, i32 0, i32 6
  %4 = getelementptr inbounds { ptr, i64 }, ptr %agg.tmp, i32 0, i32 0
  %5 = load ptr, ptr %4, align 8
  %6 = getelementptr inbounds { ptr, i64 }, ptr %agg.tmp, i32 0, i32 1
  %7 = load i64, ptr %6, align 8
  call void @llvm.experimental.noalias.scope.decl(metadata !4)
  store ptr %agg.result, ptr %result.ptr.i, align 8, !noalias !4
  store ptr %5, ptr %fmt.i, align 8, !noalias !4
  %8 = getelementptr inbounds { ptr, i64 }, ptr %fmt.i, i32 0, i32 1
  store i64 %7, ptr %8, align 8, !noalias !4
  store ptr %ref.tmp, ptr %args.addr.i, align 8, !noalias !4
  store ptr %offset, ptr %args.addr2.i, align 8, !noalias !4
  store ptr %size_, ptr %args.addr4.i, align 8, !noalias !4
  store ptr %numPins_, ptr %args.addr6.i, align 8, !noalias !4
  store ptr %fmt.i, ptr %this.addr.i3, align 8
  %this1.i4 = load ptr, ptr %this.addr.i3, align 8
  call void @llvm.memcpy.p0.p0.i64(ptr align 8 %retval.i, ptr align 8 %this1.i4, i64 16, i1 false)
  %9 = load { ptr, i64 }, ptr %retval.i, align 8
  %10 = extractvalue { ptr, i64 } %9, 0
  store ptr %10, ptr %agg.tmp.i, align 8, !noalias !4
  %11 = getelementptr inbounds { ptr, i64 }, ptr %agg.tmp.i, i32 0, i32 1
  %12 = extractvalue { ptr, i64 } %9, 1
  store i64 %12, ptr %11, align 8, !noalias !4
  %13 = load ptr, ptr %args.addr.i, align 8, !noalias !4
  %14 = load ptr, ptr %args.addr2.i, align 8, !noalias !4
  %15 = load ptr, ptr %args.addr4.i, align 8, !noalias !4
  %16 = load ptr, ptr %args.addr6.i, align 8, !noalias !4
  call void @_ZN3fmt2v816make_format_argsINS0_20basic_format_contextINS0_8appenderEcEEJRmRKmRKiRKSt6atomicIiEEEENS0_16format_arg_storeIT_JDpNSt9remove_cvINSt16remove_referenceIT0_E4typeEE4typeEEEEDpOSI_(ptr sret(%"class.fmt::v8::format_arg_store") align 16 %ref.tmp.i, ptr noundef nonnull align 8 dereferenceable(8) %13, ptr noundef nonnull align 8 dereferenceable(8) %14, ptr noundef nonnull align 4 dereferenceable(4) %15, ptr noundef nonnull align 4 dereferenceable(4) %16)
  store ptr %agg.tmp7.i, ptr %this.addr.i5, align 8
  store ptr %ref.tmp.i, ptr %store.addr.i, align 8
  %this1.i6 = load ptr, ptr %this.addr.i5, align 8
  %17 = load ptr, ptr %store.addr.i, align 8
  store ptr %17, ptr %this.addr.i7, align 8
  %this1.i8 = load ptr, ptr %this.addr.i7, align 8
  store ptr %this1.i6, ptr %this.addr.i9, align 8
  store i64 4420, ptr %desc.addr.i, align 8
  store ptr %this1.i8, ptr %values.addr.i, align 8
  %this1.i10 = load ptr, ptr %this.addr.i9, align 8
  %18 = load i64, ptr %desc.addr.i, align 8
  store i64 %18, ptr %this1.i10, align 8
  %19 = getelementptr inbounds %"class.fmt::v8::basic_format_args", ptr %this1.i10, i32 0, i32 1
  %20 = load ptr, ptr %values.addr.i, align 8
  store ptr %20, ptr %19, align 8
  %21 = load ptr, ptr %agg.tmp.i, align 8, !noalias !4
  %22 = getelementptr inbounds { ptr, i64 }, ptr %agg.tmp.i, i32 0, i32 1
  %23 = load i64, ptr %22, align 8, !noalias !4
  %24 = load i64, ptr %agg.tmp7.i, align 8, !noalias !4
  %25 = getelementptr inbounds { i64, ptr }, ptr %agg.tmp7.i, i32 0, i32 1
  %26 = load ptr, ptr %25, align 8, !noalias !4
  call void @_ZN3fmt2v87vformatB5cxx11ENS0_17basic_string_viewIcEENS0_17basic_format_argsINS0_20basic_format_contextINS0_8appenderEcEEEE(ptr sret(%"class.std::__cxx11::basic_string") align 8 %agg.result, ptr %21, i64 %23, i64 %24, ptr %26)
  ret void
}