; Function Attrs: mustprogress uwtable
define void @_ZNK8facebook5velox5cache19AsyncDataCacheEntry8toStringB5cxx11Ev(ptr noalias sret(%"class.std::__cxx11::basic_string") align 8 %agg.result, ptr nocapture noundef nonnull readonly align 8 dereferenceable(169) %this) local_unnamed_addr #3 align 2 {
entry:
  %ref.tmp.i = alloca %"class.fmt::v8::format_arg_store", align 16
  %id_.i = getelementptr inbounds i8, ptr %this, i64 8
  %0 = load i64, ptr %id_.i, align 8
  %offset = getelementptr inbounds i8, ptr %this, i64 16
  %size_ = getelementptr inbounds i8, ptr %this, i64 112
  %numPins_ = getelementptr inbounds i8, ptr %this, i64 116
  tail call void @llvm.experimental.noalias.scope.decl(metadata !14)
  %1 = load i64, ptr %offset, align 8, !noalias !14
  %2 = load i32, ptr %size_, align 8, !noalias !14
  %retval.i18.sroa.0.0.insert.ext.i = zext i32 %2 to i64
  %3 = load atomic i32, ptr %numPins_ seq_cst, align 4, !noalias !14
  %retval.i28.sroa.0.0.insert.ext.i = zext i32 %3 to i64
  store i64 %0, ptr %ref.tmp.i, align 16, !alias.scope !14
  %arrayinit.element.i.i = getelementptr inbounds i8, ptr %ref.tmp.i, i64 16
  store i64 %1, ptr %arrayinit.element.i.i, align 16, !alias.scope !14
  %arrayinit.element8.i.i = getelementptr inbounds i8, ptr %ref.tmp.i, i64 32
  store i64 %retval.i18.sroa.0.0.insert.ext.i, ptr %arrayinit.element8.i.i, align 16, !alias.scope !14
  %arrayinit.element9.i.i = getelementptr inbounds i8, ptr %ref.tmp.i, i64 48
  store i64 %retval.i28.sroa.0.0.insert.ext.i, ptr %arrayinit.element9.i.i, align 16, !alias.scope !14
  call void @_ZN3fmt2v87vformatB5cxx11ENS0_17basic_string_viewIcEENS0_17basic_format_argsINS0_20basic_format_contextINS0_8appenderEcEEEE(ptr sret(%"class.std::__cxx11::basic_string") align 8 %agg.result, ptr nonnull @.str, i64 33, i64 4420, ptr nonnull %ref.tmp.i)
  ret void
}